(lp0
(lp1
(S' '
p2
I39
tp3
a(S'#'
p4
I5
tp5
aa(lp6
(g2
I40
tp7
a(g4
I4
tp8
aa(lp9
(g2
I40
tp10
a(g4
I4
tp11
aa(lp12
(g2
I40
tp13
a(g4
I4
tp14
aa(lp15
(g2
I40
tp16
a(g4
I4
tp17
aa(lp18
(g2
I40
tp19
a(g4
I4
tp20
aa(lp21
(g2
I40
tp22
a(g4
I4
tp23
aa(lp24
(g2
I40
tp25
a(g4
I4
tp26
aa(lp27
(S'#'
p28
I5
tp29
a(S' '
p30
I3
tp31
a(g4
I3
tp32
a(g30
I6
tp33
a(g4
I3
tp34
a(g30
I10
tp35
a(g4
I3
tp36
a(g30
I7
tp37
a(g4
I4
tp38
a(g30
I7
tp39
a(g4
I3
tp40
a(g30
I3
tp41
aa(lp42
(g2
I1
tp43
a(g4
I4
tp44
a(g30
I1
tp45
a(g4
I7
tp46
a(g30
I2
tp47
a(g4
I7
tp48
a(g30
I6
tp49
a(g4
I2
tp50
a(g30
I2
tp51
a(g4
I3
tp52
a(g30
I5
tp53
a(g4
I4
tp54
a(g30
I4
tp55
a(g4
I3
tp56
a(g30
I2
tp57
a(g4
I3
tp58
a(g30
I4
tp59
aa(lp60
(g2
I1
tp61
a(g4
I5
tp62
a(g30
I4
tp63
a(g4
I5
tp64
a(g30
I4
tp65
a(g4
I4
tp66
a(g30
I3
tp67
a(g4
I3
tp68
a(g30
I3
tp69
a(g4
I4
tp70
a(g30
I4
tp71
a(g4
I4
tp72
a(g30
I3
tp73
a(g4
I3
tp74
a(g30
I5
tp75
a(g4
I3
tp76
a(g30
I2
tp77
aa(lp78
(g2
I1
tp79
a(g4
I4
tp80
a(g30
I5
tp81
a(g4
I4
tp82
a(g30
I5
tp83
a(g4
I4
tp84
a(g30
I3
tp85
a(g4
I3
tp86
a(g30
I4
tp87
a(g4
I3
tp88
a(g30
I4
tp89
a(g4
I4
tp90
a(g30
I2
tp91
a(g4
I3
tp92
a(g30
I6
tp93
a(g4
I4
tp94
a(g30
I1
tp95
aa(lp96
(g2
I1
tp97
a(g4
I4
tp98
a(g30
I5
tp99
a(g4
I4
tp100
a(g30
I5
tp101
a(g4
I4
tp102
a(g30
I10
tp103
a(g4
I3
tp104
a(g30
I4
tp105
a(g4
I4
tp106
a(g30
I2
tp107
a(g4
I3
tp108
a(g30
I7
tp109
a(g4
I3
tp110
a(g30
I1
tp111
aa(lp112
(g2
I1
tp113
a(g4
I4
tp114
a(g30
I5
tp115
a(g4
I4
tp116
a(g30
I5
tp117
a(g4
I4
tp118
a(g30
I5
tp119
a(g4
I2
tp120
a(g30
I3
tp121
a(g4
I3
tp122
a(g30
I4
tp123
a(g4
I4
tp124
a(g30
I1
tp125
a(g4
I4
tp126
a(g30
I7
tp127
a(g4
I3
tp128
a(g30
I1
tp129
aa(lp130
(g2
I1
tp131
a(g4
I4
tp132
a(g30
I5
tp133
a(g4
I4
tp134
a(g30
I5
tp135
a(g4
I4
tp136
a(g30
I3
tp137
a(g4
I10
tp138
a(g30
I4
tp139
a(g4
I4
tp140
a(g30
I1
tp141
a(g4
I14
tp142
a(g30
I1
tp143
aa(lp144
(g2
I1
tp145
a(g4
I4
tp146
a(g30
I5
tp147
a(g4
I4
tp148
a(g30
I5
tp149
a(g4
I4
tp150
a(g30
I2
tp151
a(g4
I3
tp152
a(g30
I4
tp153
a(g4
I4
tp154
a(g30
I4
tp155
a(g4
I4
tp156
a(g30
I1
tp157
a(g4
I4
tp158
a(g30
I11
tp159
aa(lp160
(g2
I1
tp161
a(g4
I4
tp162
a(g30
I5
tp163
a(g4
I4
tp164
a(g30
I5
tp165
a(g4
I4
tp166
a(g30
I1
tp167
a(g4
I4
tp168
a(g30
I5
tp169
a(g4
I3
tp170
a(g30
I4
tp171
a(g4
I4
tp172
a(g30
I1
tp173
a(g4
I4
tp174
a(g30
I11
tp175
aa(lp176
(g2
I1
tp177
a(g4
I4
tp178
a(g30
I5
tp179
a(g4
I4
tp180
a(g30
I5
tp181
a(g4
I4
tp182
a(g30
I1
tp183
a(g4
I4
tp184
a(g30
I5
tp185
a(g4
I3
tp186
a(g30
I4
tp187
a(g4
I4
tp188
a(g30
I2
tp189
a(g4
I3
tp190
a(g30
I11
tp191
aa(lp192
(g2
I1
tp193
a(g4
I4
tp194
a(g30
I5
tp195
a(g4
I4
tp196
a(g30
I5
tp197
a(g4
I4
tp198
a(g30
I2
tp199
a(g4
I3
tp200
a(g30
I4
tp201
a(g4
I4
tp202
a(g30
I4
tp203
a(g4
I4
tp204
a(g30
I3
tp205
a(g4
I3
tp206
a(g30
I6
tp207
a(g4
I2
tp208
a(g30
I2
tp209
aa(lp210
(g2
I1
tp211
a(g4
I4
tp212
a(g30
I5
tp213
a(g4
I4
tp214
a(g30
I5
tp215
a(g4
I4
tp216
a(g30
I3
tp217
a(g4
I11
tp218
a(g30
I3
tp219
a(g4
I4
tp220
a(g30
I4
tp221
a(g4
I3
tp222
a(g30
I4
tp223
a(g4
I2
tp224
a(g30
I3
tp225
aa(lp226
(g28
I6
tp227
a(g30
I4
tp228
a(g4
I4
tp229
a(g30
I5
tp230
a(g4
I5
tp231
a(g30
I4
tp232
a(g4
I2
tp233
a(g30
I4
tp234
a(g4
I4
tp235
a(g30
I1
tp236
a(g4
I6
tp237
a(g30
I6
tp238
a(g4
I3
tp239
a(g30
I6
tp240
aa(lp241
a.
