(lp0
(lp1
(S' '
p2
I4
tp3
a(S'#'
p4
I25
tp5
aa(lp6
(g2
I5
tp7
a(g4
I24
tp8
aa(lp9
(g2
I5
tp10
a(g4
I4
tp11
a(S' '
p12
I6
tp13
a(g4
I4
tp14
a(g12
I6
tp15
a(g4
I4
tp16
aa(lp17
(g2
I5
tp18
a(g4
I4
tp19
a(g12
I6
tp20
a(g4
I4
tp21
a(g12
I6
tp22
a(g4
I4
tp23
aa(lp24
(g2
I5
tp25
a(g4
I24
tp26
aa(lp27
(g2
I5
tp28
a(g4
I24
tp29
aa(lp30
(g2
I5
tp31
a(g4
I4
tp32
a(g12
I6
tp33
a(g4
I4
tp34
a(g12
I6
tp35
a(g4
I4
tp36
aa(lp37
(g2
I5
tp38
a(g4
I4
tp39
a(g12
I6
tp40
a(g4
I4
tp41
a(g12
I6
tp42
a(g4
I4
tp43
aa(lp44
(g2
I5
tp45
a(g4
I24
tp46
aa(lp47
(g2
I4
tp48
a(g4
I25
tp49
aa(lp50
(g2
I13
tp51
a(g4
I6
tp52
a(g12
I7
tp53
aa(lp54
(g2
I1
tp55
a(g4
I33
tp56
aa(lp57
(g2
I1
tp58
a(g4
I33
tp59
aa(lp60
(g2
I12
tp61
a(g4
I6
tp62
a(g12
I10
tp63
a(g4
I5
tp64
a(g12
I1
tp65
aa(lp66
(g2
I11
tp67
a(g4
I6
tp68
a(g12
I11
tp69
a(g4
I5
tp70
a(g12
I3
tp71
aa(lp72
(g2
I10
tp73
a(g4
I6
tp74
a(g12
I11
tp75
a(g4
I5
tp76
aa(lp77
(g2
I9
tp78
a(g4
I5
tp79
a(g12
I13
tp80
a(g4
I5
tp81
aa(lp82
(g2
I8
tp83
a(g4
I4
tp84
a(g12
I14
tp85
a(g4
I5
tp86
aa(lp87
(g2
I7
tp88
a(g4
I3
tp89
a(g12
I9
tp90
a(g4
I2
tp91
a(g12
I3
tp92
a(g4
I6
tp93
aa(lp94
(g2
I6
tp95
a(g4
I2
tp96
a(g12
I12
tp97
a(g4
I9
tp98
aa(lp99
(g2
I5
tp100
a(g4
I1
tp101
a(g12
I16
tp102
a(g4
I5
tp103
a(g12
I13
tp104
aa.
